target datalayout = "e-m:e-p270:32:32-p271:32:32-p272:64:64-i64:64-i128:128-f80:128-n8:16:32:64-S128"
target triple = "x86_64-pc-linux-gnu"

%class.btVector3 = type { [4 x float] }
%class.btGeneric6DofSpring2Constraint = type <{ %class.btTypedConstraint, %class.btTransform, %class.btTransform, [3 x %class.btJacobianEntry], [3 x %class.btJacobianEntry], %class.btTranslationalLimitMotor2, [3 x %class.btRotationalLimitMotor2], i32, %class.btTransform, %class.btTransform, %class.btVector3, [3 x %class.btVector3], %class.btVector3, float, float, i8, [3 x i8], i32, [4 x i8] }>
%class.btTypedConstraint = type { ptr, %struct.btTypedObject, i32, %union.anon.0, float, i8, i8, i32, ptr, ptr, float, float, ptr }
%struct.btTypedObject = type { i32 }
%union.anon.0 = type { ptr }
%class.btJacobianEntry = type { %class.btVector3, %class.btVector3, %class.btVector3, %class.btVector3, %class.btVector3, float }
%class.btTranslationalLimitMotor2 = type { %class.btVector3, %class.btVector3, %class.btVector3, %class.btVector3, %class.btVector3, %class.btVector3, %class.btVector3, [3 x i8], [3 x i8], [3 x i8], %class.btVector3, %class.btVector3, [3 x i8], %class.btVector3, [3 x i8], %class.btVector3, %class.btVector3, %class.btVector3, %class.btVector3, %class.btVector3, %class.btVector3, [3 x i32] }
%class.btRotationalLimitMotor2 = type { float, float, float, float, float, float, float, i8, float, float, i8, float, i8, float, i8, float, i8, float, float, float, float, i32 }
%class.btTransform = type { %class.btMatrix3x3, %class.btVector3 }
%class.btMatrix3x3 = type { [3 x %class.btVector3] }

; Function Attrs: inlinehint mustprogress nounwind uwtable
define linkonce_odr dso_local noundef float @_Z6btFmodff(float noundef %0, float noundef %1) #5 comdat {
  %3 = alloca float, align 4
  %4 = alloca float, align 4
  store float %0, ptr %3, align 4, !tbaa !20
  store float %1, ptr %4, align 4, !tbaa !20
  %5 = load float, ptr %3, align 4, !tbaa !20
  %6 = load float, ptr %4, align 4, !tbaa !20
  %7 = call float @fmodf(float noundef %5, float noundef %6) #10, !tbaa !9
  ret float %7
}

; Function Attrs: inlinehint mustprogress uwtable
define linkonce_odr dso_local noundef float @_Z16btNormalizeAnglef(float noundef %0) #6 comdat {
  %2 = alloca float, align 4
  %3 = alloca float, align 4
  store float %0, ptr %3, align 4, !tbaa !20
  %4 = load float, ptr %3, align 4, !tbaa !20
  %5 = call noundef float @_Z6btFmodff(float noundef %4, float noundef 0x401921FB60000000)
  store float %5, ptr %3, align 4, !tbaa !20
  %6 = load float, ptr %3, align 4, !tbaa !20
  %7 = fcmp olt float %6, 0xC00921FB60000000
  br i1 %7, label %8, label %11

8:                                                ; preds = %1
  %9 = load float, ptr %3, align 4, !tbaa !20
  %10 = fadd float %9, 0x401921FB60000000
  store float %10, ptr %2, align 4
  br label %19

11:                                               ; preds = %1
  %12 = load float, ptr %3, align 4, !tbaa !20
  %13 = fcmp ogt float %12, 0x400921FB60000000
  br i1 %13, label %14, label %17

14:                                               ; preds = %11
  %15 = load float, ptr %3, align 4, !tbaa !20
  %16 = fsub float %15, 0x401921FB60000000
  store float %16, ptr %2, align 4
  br label %19

17:                                               ; preds = %11
  %18 = load float, ptr %3, align 4, !tbaa !20
  store float %18, ptr %2, align 4
  br label %19

19:                                               ; preds = %17, %14, %8
  %20 = load float, ptr %2, align 4
  ret float %20
}

; Function Attrs: inlinehint mustprogress nounwind uwtable
define linkonce_odr dso_local noundef ptr @_ZNK9btVector3cvPKfEv(ptr noundef nonnull align 4 dereferenceable(16) %0) #5 comdat align 2 {
  %2 = alloca ptr, align 8
  store ptr %0, ptr %2, align 8, !tbaa !24
  %3 = load ptr, ptr %2, align 8
  %4 = getelementptr inbounds nuw %class.btVector3, ptr %3, i32 0, i32 0
  %5 = getelementptr inbounds [4 x float], ptr %4, i64 0, i64 0
  ret ptr %5
}

; Function Attrs: mustprogress nounwind uwtable
define linkonce_odr dso_local void @_ZN17btTypedConstraintD2Ev(ptr noundef nonnull align 8 dereferenceable(72) %0) unnamed_addr #1 comdat align 2 {
  %2 = alloca ptr, align 8
  store ptr %0, ptr %2, align 8, !tbaa !37
  ret void
}

; Function Attrs: mustprogress nounwind uwtable
define linkonce_odr dso_local void @_ZN30btGeneric6DofSpring2Constraint19setLinearUpperLimitERK9btVector3(ptr noundef nonnull align 8 dereferenceable(1484) %0, ptr noundef nonnull align 4 dereferenceable(16) %1) #1 comdat align 2 {
  %3 = alloca ptr, align 8
  %4 = alloca ptr, align 8
  store ptr %0, ptr %3, align 8, !tbaa !22
  store ptr %1, ptr %4, align 8, !tbaa !24
  %5 = load ptr, ptr %3, align 8
  %6 = load ptr, ptr %4, align 8, !tbaa !24
  %7 = getelementptr inbounds nuw %class.btGeneric6DofSpring2Constraint, ptr %5, i32 0, i32 5
  %8 = getelementptr inbounds nuw %class.btTranslationalLimitMotor2, ptr %7, i32 0, i32 1
  call void @llvm.memcpy.p0.p0.i64(ptr align 8 %8, ptr align 4 %6, i64 16, i1 false), !tbaa.struct !35
  ret void
}

; Function Attrs: mustprogress nounwind uwtable
define linkonce_odr dso_local void @_ZN30btGeneric6DofSpring2Constraint19setLinearLowerLimitERK9btVector3(ptr noundef nonnull align 8 dereferenceable(1484) %0, ptr noundef nonnull align 4 dereferenceable(16) %1) #1 comdat align 2 {
  %3 = alloca ptr, align 8
  %4 = alloca ptr, align 8
  store ptr %0, ptr %3, align 8, !tbaa !22
  store ptr %1, ptr %4, align 8, !tbaa !24
  %5 = load ptr, ptr %3, align 8
  %6 = load ptr, ptr %4, align 8, !tbaa !24
  %7 = getelementptr inbounds nuw %class.btGeneric6DofSpring2Constraint, ptr %5, i32 0, i32 5
  %8 = getelementptr inbounds nuw %class.btTranslationalLimitMotor2, ptr %7, i32 0, i32 0
  call void @llvm.memcpy.p0.p0.i64(ptr align 8 %8, ptr align 4 %6, i64 16, i1 false), !tbaa.struct !35
  ret void
}

; Function Attrs: mustprogress uwtable
define linkonce_odr dso_local void @_ZN30btGeneric6DofSpring2Constraint20setAngularUpperLimitERK9btVector3(ptr noundef nonnull align 8 dereferenceable(1484) %0, ptr noundef nonnull align 4 dereferenceable(16) %1) #2 comdat align 2 {
  %3 = alloca ptr, align 8
  %4 = alloca ptr, align 8
  %5 = alloca i32, align 4
  store ptr %0, ptr %3, align 8, !tbaa !22
  store ptr %1, ptr %4, align 8, !tbaa !24
  %6 = load ptr, ptr %3, align 8
  call void @llvm.lifetime.start.p0(i64 4, ptr %5) #10
  store i32 0, ptr %5, align 4, !tbaa !9
  br label %7

7:                                                ; preds = %24, %2
  %8 = load i32, ptr %5, align 4, !tbaa !9
  %9 = icmp slt i32 %8, 3
  br i1 %9, label %11, label %10

10:                                               ; preds = %7
  call void @llvm.lifetime.end.p0(i64 4, ptr %5) #10
  br label %27

11:                                               ; preds = %7
  %12 = load ptr, ptr %4, align 8, !tbaa !24
  %13 = call noundef ptr @_ZNK9btVector3cvPKfEv(ptr noundef nonnull align 4 dereferenceable(16) %12)
  %14 = load i32, ptr %5, align 4, !tbaa !9
  %15 = sext i32 %14 to i64
  %16 = getelementptr inbounds float, ptr %13, i64 %15
  %17 = load float, ptr %16, align 4, !tbaa !20
  %18 = call noundef float @_Z16btNormalizeAnglef(float noundef %17)
  %19 = getelementptr inbounds nuw %class.btGeneric6DofSpring2Constraint, ptr %6, i32 0, i32 6
  %20 = load i32, ptr %5, align 4, !tbaa !9
  %21 = sext i32 %20 to i64
  %22 = getelementptr inbounds [3 x %class.btRotationalLimitMotor2], ptr %19, i64 0, i64 %21
  %23 = getelementptr inbounds nuw %class.btRotationalLimitMotor2, ptr %22, i32 0, i32 1
  store float %18, ptr %23, align 4, !tbaa !33
  br label %24

24:                                               ; preds = %11
  %25 = load i32, ptr %5, align 4, !tbaa !9
  %26 = add nsw i32 %25, 1
  store i32 %26, ptr %5, align 4, !tbaa !9
  br label %7, !llvm.loop !34

27:                                               ; preds = %10
  ret void
}

; Function Attrs: mustprogress uwtable
define linkonce_odr dso_local void @_ZN30btGeneric6DofSpring2Constraint20setAngularLowerLimitERK9btVector3(ptr noundef nonnull align 8 dereferenceable(1484) %0, ptr noundef nonnull align 4 dereferenceable(16) %1) #2 comdat align 2 {
  %3 = alloca ptr, align 8
  %4 = alloca ptr, align 8
  %5 = alloca i32, align 4
  store ptr %0, ptr %3, align 8, !tbaa !22
  store ptr %1, ptr %4, align 8, !tbaa !24
  %6 = load ptr, ptr %3, align 8
  call void @llvm.lifetime.start.p0(i64 4, ptr %5) #10
  store i32 0, ptr %5, align 4, !tbaa !9
  br label %7

7:                                                ; preds = %24, %2
  %8 = load i32, ptr %5, align 4, !tbaa !9
  %9 = icmp slt i32 %8, 3
  br i1 %9, label %11, label %10

10:                                               ; preds = %7
  call void @llvm.lifetime.end.p0(i64 4, ptr %5) #10
  br label %27

11:                                               ; preds = %7
  %12 = load ptr, ptr %4, align 8, !tbaa !24
  %13 = call noundef ptr @_ZNK9btVector3cvPKfEv(ptr noundef nonnull align 4 dereferenceable(16) %12)
  %14 = load i32, ptr %5, align 4, !tbaa !9
  %15 = sext i32 %14 to i64
  %16 = getelementptr inbounds float, ptr %13, i64 %15
  %17 = load float, ptr %16, align 4, !tbaa !20
  %18 = call noundef float @_Z16btNormalizeAnglef(float noundef %17)
  %19 = getelementptr inbounds nuw %class.btGeneric6DofSpring2Constraint, ptr %6, i32 0, i32 6
  %20 = load i32, ptr %5, align 4, !tbaa !9
  %21 = sext i32 %20 to i64
  %22 = getelementptr inbounds [3 x %class.btRotationalLimitMotor2], ptr %19, i64 0, i64 %21
  %23 = getelementptr inbounds nuw %class.btRotationalLimitMotor2, ptr %22, i32 0, i32 0
  store float %18, ptr %23, align 8, !tbaa !26
  br label %24

24:                                               ; preds = %11
  %25 = load i32, ptr %5, align 4, !tbaa !9
  %26 = add nsw i32 %25, 1
  store i32 %26, ptr %5, align 4, !tbaa !9
  br label %7, !llvm.loop !29

27:                                               ; preds = %10
  ret void
}

; Function Attrs: inlinehint mustprogress nounwind uwtable
define linkonce_odr dso_local void @_ZN9btVector3C2ERKfS1_S1_(ptr noundef nonnull align 4 dereferenceable(16) %0, ptr noundef nonnull align 4 dereferenceable(4) %1, ptr noundef nonnull align 4 dereferenceable(4) %2, ptr noundef nonnull align 4 dereferenceable(4) %3) unnamed_addr #5 comdat align 2 {
  %5 = alloca ptr, align 8
  %6 = alloca ptr, align 8
  %7 = alloca ptr, align 8
  %8 = alloca ptr, align 8
  store ptr %0, ptr %5, align 8, !tbaa !24
  store ptr %1, ptr %6, align 8, !tbaa !31
  store ptr %2, ptr %7, align 8, !tbaa !31
  store ptr %3, ptr %8, align 8, !tbaa !31
  %9 = load ptr, ptr %5, align 8
  %10 = load ptr, ptr %6, align 8, !tbaa !31
  %11 = load float, ptr %10, align 4, !tbaa !20
  %12 = getelementptr inbounds nuw %class.btVector3, ptr %9, i32 0, i32 0
  %13 = getelementptr inbounds [4 x float], ptr %12, i64 0, i64 0
  store float %11, ptr %13, align 4, !tbaa !20
  %14 = load ptr, ptr %7, align 8, !tbaa !31
  %15 = load float, ptr %14, align 4, !tbaa !20
  %16 = getelementptr inbounds nuw %class.btVector3, ptr %9, i32 0, i32 0
  %17 = getelementptr inbounds [4 x float], ptr %16, i64 0, i64 1
  store float %15, ptr %17, align 4, !tbaa !20
  %18 = load ptr, ptr %8, align 8, !tbaa !31
  %19 = load float, ptr %18, align 4, !tbaa !20
  %20 = getelementptr inbounds nuw %class.btVector3, ptr %9, i32 0, i32 0
  %21 = getelementptr inbounds [4 x float], ptr %20, i64 0, i64 2
  store float %19, ptr %21, align 4, !tbaa !20
  %22 = getelementptr inbounds nuw %class.btVector3, ptr %9, i32 0, i32 0
  %23 = getelementptr inbounds [4 x float], ptr %22, i64 0, i64 3
  store float 0.000000e+00, ptr %23, align 4, !tbaa !20
  ret void
}

; Function Attrs: mustprogress uwtable
define dso_local void @_ZN17btFixedConstraintC2ER11btRigidBodyS1_RK11btTransformS4_(ptr noundef nonnull align 8 dereferenceable(1484) %0, ptr noundef nonnull align 8 dereferenceable(744) %1, ptr noundef nonnull align 8 dereferenceable(744) %2, ptr noundef nonnull align 4 dereferenceable(64) %3, ptr noundef nonnull align 4 dereferenceable(64) %4) unnamed_addr #2 align 2 personality ptr @__gxx_personality_v0 {
  %6 = alloca ptr, align 8
  %7 = alloca ptr, align 8
  %8 = alloca ptr, align 8
  %9 = alloca ptr, align 8
  %10 = alloca ptr, align 8
  %11 = alloca %class.btVector3, align 4
  %12 = alloca float, align 4
  %13 = alloca float, align 4
  %14 = alloca float, align 4
  %15 = alloca ptr, align 8
  %16 = alloca i32, align 4
  %17 = alloca %class.btVector3, align 4
  %18 = alloca float, align 4
  %19 = alloca float, align 4
  %20 = alloca float, align 4
  %21 = alloca %class.btVector3, align 4
  %22 = alloca float, align 4
  %23 = alloca float, align 4
  %24 = alloca float, align 4
  %25 = alloca %class.btVector3, align 4
  %26 = alloca float, align 4
  %27 = alloca float, align 4
  %28 = alloca float, align 4
  store ptr %0, ptr %6, align 8, !tbaa !12
  store ptr %1, ptr %7, align 8, !tbaa !14
  store ptr %2, ptr %8, align 8, !tbaa !14
  store ptr %3, ptr %9, align 8, !tbaa !16
  store ptr %4, ptr %10, align 8, !tbaa !16
  %29 = load ptr, ptr %6, align 8
  %30 = load ptr, ptr %7, align 8, !tbaa !14
  %31 = load ptr, ptr %8, align 8, !tbaa !14
  %32 = load ptr, ptr %9, align 8, !tbaa !16
  %33 = load ptr, ptr %10, align 8, !tbaa !16
  call void @_ZN30btGeneric6DofSpring2ConstraintC2ER11btRigidBodyS1_RK11btTransformS4_11RotateOrder(ptr noundef nonnull align 8 dereferenceable(1484) %29, ptr noundef nonnull align 8 dereferenceable(744) %30, ptr noundef nonnull align 8 dereferenceable(744) %31, ptr noundef nonnull align 4 dereferenceable(64) %32, ptr noundef nonnull align 4 dereferenceable(64) %33, i32 noundef 0)
  store ptr getelementptr inbounds inrange(-16, 88) ({ [13 x ptr] }, ptr @_ZTV17btFixedConstraint, i32 0, i32 0, i32 2), ptr %29, align 8, !tbaa !18
  call void @llvm.lifetime.start.p0(i64 16, ptr %11) #10
  call void @llvm.lifetime.start.p0(i64 4, ptr %12) #10
  store float 0.000000e+00, ptr %12, align 4, !tbaa !20
  call void @llvm.lifetime.start.p0(i64 4, ptr %13) #10
  store float 0.000000e+00, ptr %13, align 4, !tbaa !20
  call void @llvm.lifetime.start.p0(i64 4, ptr %14) #10
  store float 0.000000e+00, ptr %14, align 4, !tbaa !20
  invoke void @_ZN9btVector3C2ERKfS1_S1_(ptr noundef nonnull align 4 dereferenceable(16) %11, ptr noundef nonnull align 4 dereferenceable(4) %12, ptr noundef nonnull align 4 dereferenceable(4) %13, ptr noundef nonnull align 4 dereferenceable(4) %14)
          to label %34 unwind label %42

34:                                               ; preds = %5
  invoke void @_ZN30btGeneric6DofSpring2Constraint20setAngularLowerLimitERK9btVector3(ptr noundef nonnull align 8 dereferenceable(1484) %29, ptr noundef nonnull align 4 dereferenceable(16) %11)
          to label %35 unwind label %42

35:                                               ; preds = %34
  call void @llvm.lifetime.end.p0(i64 4, ptr %14) #10
  call void @llvm.lifetime.end.p0(i64 4, ptr %13) #10
  call void @llvm.lifetime.end.p0(i64 4, ptr %12) #10
  call void @llvm.lifetime.end.p0(i64 16, ptr %11) #10
  call void @llvm.lifetime.start.p0(i64 16, ptr %17) #10
  call void @llvm.lifetime.start.p0(i64 4, ptr %18) #10
  store float 0.000000e+00, ptr %18, align 4, !tbaa !20
  call void @llvm.lifetime.start.p0(i64 4, ptr %19) #10
  store float 0.000000e+00, ptr %19, align 4, !tbaa !20
  call void @llvm.lifetime.start.p0(i64 4, ptr %20) #10
  store float 0.000000e+00, ptr %20, align 4, !tbaa !20
  invoke void @_ZN9btVector3C2ERKfS1_S1_(ptr noundef nonnull align 4 dereferenceable(16) %17, ptr noundef nonnull align 4 dereferenceable(4) %18, ptr noundef nonnull align 4 dereferenceable(4) %19, ptr noundef nonnull align 4 dereferenceable(4) %20)
          to label %36 unwind label %46

36:                                               ; preds = %35
  invoke void @_ZN30btGeneric6DofSpring2Constraint20setAngularUpperLimitERK9btVector3(ptr noundef nonnull align 8 dereferenceable(1484) %29, ptr noundef nonnull align 4 dereferenceable(16) %17)
          to label %37 unwind label %46

37:                                               ; preds = %36
  call void @llvm.lifetime.end.p0(i64 4, ptr %20) #10
  call void @llvm.lifetime.end.p0(i64 4, ptr %19) #10
  call void @llvm.lifetime.end.p0(i64 4, ptr %18) #10
  call void @llvm.lifetime.end.p0(i64 16, ptr %17) #10
  call void @llvm.lifetime.start.p0(i64 16, ptr %21) #10
  call void @llvm.lifetime.start.p0(i64 4, ptr %22) #10
  store float 0.000000e+00, ptr %22, align 4, !tbaa !20
  call void @llvm.lifetime.start.p0(i64 4, ptr %23) #10
  store float 0.000000e+00, ptr %23, align 4, !tbaa !20
  call void @llvm.lifetime.start.p0(i64 4, ptr %24) #10
  store float 0.000000e+00, ptr %24, align 4, !tbaa !20
  invoke void @_ZN9btVector3C2ERKfS1_S1_(ptr noundef nonnull align 4 dereferenceable(16) %21, ptr noundef nonnull align 4 dereferenceable(4) %22, ptr noundef nonnull align 4 dereferenceable(4) %23, ptr noundef nonnull align 4 dereferenceable(4) %24)
          to label %38 unwind label %50

38:                                               ; preds = %37
  invoke void @_ZN30btGeneric6DofSpring2Constraint19setLinearLowerLimitERK9btVector3(ptr noundef nonnull align 8 dereferenceable(1484) %29, ptr noundef nonnull align 4 dereferenceable(16) %21)
          to label %39 unwind label %50

39:                                               ; preds = %38
  call void @llvm.lifetime.end.p0(i64 4, ptr %24) #10
  call void @llvm.lifetime.end.p0(i64 4, ptr %23) #10
  call void @llvm.lifetime.end.p0(i64 4, ptr %22) #10
  call void @llvm.lifetime.end.p0(i64 16, ptr %21) #10
  call void @llvm.lifetime.start.p0(i64 16, ptr %25) #10
  call void @llvm.lifetime.start.p0(i64 4, ptr %26) #10
  store float 0.000000e+00, ptr %26, align 4, !tbaa !20
  call void @llvm.lifetime.start.p0(i64 4, ptr %27) #10
  store float 0.000000e+00, ptr %27, align 4, !tbaa !20
  call void @llvm.lifetime.start.p0(i64 4, ptr %28) #10
  store float 0.000000e+00, ptr %28, align 4, !tbaa !20
  invoke void @_ZN9btVector3C2ERKfS1_S1_(ptr noundef nonnull align 4 dereferenceable(16) %25, ptr noundef nonnull align 4 dereferenceable(4) %26, ptr noundef nonnull align 4 dereferenceable(4) %27, ptr noundef nonnull align 4 dereferenceable(4) %28)
          to label %40 unwind label %54

40:                                               ; preds = %39
  invoke void @_ZN30btGeneric6DofSpring2Constraint19setLinearUpperLimitERK9btVector3(ptr noundef nonnull align 8 dereferenceable(1484) %29, ptr noundef nonnull align 4 dereferenceable(16) %25)
          to label %41 unwind label %54

41:                                               ; preds = %40
  call void @llvm.lifetime.end.p0(i64 4, ptr %28) #10
  call void @llvm.lifetime.end.p0(i64 4, ptr %27) #10
  call void @llvm.lifetime.end.p0(i64 4, ptr %26) #10
  call void @llvm.lifetime.end.p0(i64 16, ptr %25) #10
  ret void

42:                                               ; preds = %34, %5
  %43 = landingpad { ptr, i32 }
          cleanup
  %44 = extractvalue { ptr, i32 } %43, 0
  store ptr %44, ptr %15, align 8
  %45 = extractvalue { ptr, i32 } %43, 1
  store i32 %45, ptr %16, align 4
  call void @llvm.lifetime.end.p0(i64 4, ptr %14) #10
  call void @llvm.lifetime.end.p0(i64 4, ptr %13) #10
  call void @llvm.lifetime.end.p0(i64 4, ptr %12) #10
  call void @llvm.lifetime.end.p0(i64 16, ptr %11) #10
  br label %58

46:                                               ; preds = %36, %35
  %47 = landingpad { ptr, i32 }
          cleanup
  %48 = extractvalue { ptr, i32 } %47, 0
  store ptr %48, ptr %15, align 8
  %49 = extractvalue { ptr, i32 } %47, 1
  store i32 %49, ptr %16, align 4
  call void @llvm.lifetime.end.p0(i64 4, ptr %20) #10
  call void @llvm.lifetime.end.p0(i64 4, ptr %19) #10
  call void @llvm.lifetime.end.p0(i64 4, ptr %18) #10
  call void @llvm.lifetime.end.p0(i64 16, ptr %17) #10
  br label %58

50:                                               ; preds = %38, %37
  %51 = landingpad { ptr, i32 }
          cleanup
  %52 = extractvalue { ptr, i32 } %51, 0
  store ptr %52, ptr %15, align 8
  %53 = extractvalue { ptr, i32 } %51, 1
  store i32 %53, ptr %16, align 4
  call void @llvm.lifetime.end.p0(i64 4, ptr %24) #10
  call void @llvm.lifetime.end.p0(i64 4, ptr %23) #10
  call void @llvm.lifetime.end.p0(i64 4, ptr %22) #10
  call void @llvm.lifetime.end.p0(i64 16, ptr %21) #10
  br label %58

54:                                               ; preds = %40, %39
  %55 = landingpad { ptr, i32 }
          cleanup
  %56 = extractvalue { ptr, i32 } %55, 0
  store ptr %56, ptr %15, align 8
  %57 = extractvalue { ptr, i32 } %55, 1
  store i32 %57, ptr %16, align 4
  call void @llvm.lifetime.end.p0(i64 4, ptr %28) #10
  call void @llvm.lifetime.end.p0(i64 4, ptr %27) #10
  call void @llvm.lifetime.end.p0(i64 4, ptr %26) #10
  call void @llvm.lifetime.end.p0(i64 16, ptr %25) #10
  br label %58

58:                                               ; preds = %54, %50, %46, %42
  call void @_ZN17btTypedConstraintD2Ev(ptr noundef nonnull align 8 dereferenceable(1484) %29) #10
  br label %59

59:                                               ; preds = %58
  %60 = load ptr, ptr %15, align 8
  %61 = load i32, ptr %16, align 4
  %62 = insertvalue { ptr, i32 } poison, ptr %60, 0
  %63 = insertvalue { ptr, i32 } %62, i32 %61, 1
  resume { ptr, i32 } %63
}