; Function Attrs: mustprogress uwtable
define dso_local void @_ZN17btFixedConstraintC2ER11btRigidBodyS1_RK11btTransformS4_(ptr noundef nonnull align 8 dereferenceable(1484) %0, ptr noundef nonnull align 8 dereferenceable(744) %1, ptr noundef nonnull align 8 dereferenceable(744) %2, ptr noundef nonnull align 4 dereferenceable(64) %3, ptr noundef nonnull align 4 dereferenceable(64) %4) unnamed_addr #0 align 2 personality ptr @__gxx_personality_v0 {
  %6 = alloca %class.btVector3, align 4
  %7 = alloca %class.btVector3, align 4
  tail call void @_ZN30btGeneric6DofSpring2ConstraintC2ER11btRigidBodyS1_RK11btTransformS4_11RotateOrder(ptr noundef nonnull align 8 dereferenceable(1484) %0, ptr noundef nonnull align 8 dereferenceable(744) %1, ptr noundef nonnull align 8 dereferenceable(744) %2, ptr noundef nonnull align 4 dereferenceable(64) %3, ptr noundef nonnull align 4 dereferenceable(64) %4, i32 noundef 0)
  store ptr getelementptr inbounds nuw inrange(-16, 88) (i8, ptr @_ZTV17btFixedConstraint, i64 16), ptr %0, align 8, !tbaa !4
  call void @llvm.lifetime.start.p0(i64 16, ptr nonnull %6) #11
  %8 = getelementptr inbounds nuw i8, ptr %0, i64 992
  call void @llvm.memset.p0.i64(ptr noundef nonnull align 4 dereferenceable(16) %6, i8 0, i64 16, i1 false)
  br label %9

9:                                                ; preds = %_Z16btNormalizeAnglef.exit.i, %5
  %indvars.iv.i = phi i64 [ 0, %5 ], [ %indvars.iv.next.i, %_Z16btNormalizeAnglef.exit.i ]
  %10 = getelementptr inbounds nuw float, ptr %6, i64 %indvars.iv.i
  %11 = load float, ptr %10, align 4, !tbaa !7
  %12 = tail call noundef float @fmodf(float noundef %11, float noundef 0x401921FB60000000) #11, !tbaa !10
  %13 = fcmp olt float %12, 0xC00921FB60000000
  br i1 %13, label %14, label %16

14:                                               ; preds = %9
  %15 = fadd float %12, 0x401921FB60000000
  br label %_Z16btNormalizeAnglef.exit.i

16:                                               ; preds = %9
  %17 = fcmp ogt float %12, 0x400921FB60000000
  br i1 %17, label %18, label %_Z16btNormalizeAnglef.exit.i

18:                                               ; preds = %16
  %19 = fadd float %12, 0xC01921FB60000000
  br label %_Z16btNormalizeAnglef.exit.i

_Z16btNormalizeAnglef.exit.i:                     ; preds = %18, %16, %14
  %.0.i.i = phi float [ %15, %14 ], [ %19, %18 ], [ %12, %16 ]
  %20 = getelementptr inbounds nuw [3 x %class.btRotationalLimitMotor2], ptr %8, i64 0, i64 %indvars.iv.i
  store float %.0.i.i, ptr %20, align 8, !tbaa !12
  %indvars.iv.next.i = add nuw nsw i64 %indvars.iv.i, 1
  %exitcond.not.i = icmp eq i64 %indvars.iv.next.i, 3
  br i1 %exitcond.not.i, label %_ZN30btGeneric6DofSpring2Constraint20setAngularLowerLimitERK9btVector3.exit, label %9, !llvm.loop !15

_ZN30btGeneric6DofSpring2Constraint20setAngularLowerLimitERK9btVector3.exit: ; preds = %_Z16btNormalizeAnglef.exit.i
  call void @llvm.lifetime.end.p0(i64 16, ptr nonnull %6) #11
  call void @llvm.lifetime.start.p0(i64 16, ptr nonnull %7) #11
  %21 = getelementptr inbounds nuw i8, ptr %0, i64 996
  call void @llvm.memset.p0.i64(ptr noundef nonnull align 4 dereferenceable(16) %7, i8 0, i64 16, i1 false)
  br label %22

22:                                               ; preds = %_Z16btNormalizeAnglef.exit.i9, %_ZN30btGeneric6DofSpring2Constraint20setAngularLowerLimitERK9btVector3.exit
  %indvars.iv.i8 = phi i64 [ 0, %_ZN30btGeneric6DofSpring2Constraint20setAngularLowerLimitERK9btVector3.exit ], [ %indvars.iv.next.i11, %_Z16btNormalizeAnglef.exit.i9 ]
  %23 = getelementptr inbounds nuw float, ptr %7, i64 %indvars.iv.i8
  %24 = load float, ptr %23, align 4, !tbaa !7
  %25 = tail call noundef float @fmodf(float noundef %24, float noundef 0x401921FB60000000) #11, !tbaa !10
  %26 = fcmp olt float %25, 0xC00921FB60000000
  br i1 %26, label %27, label %29

27:                                               ; preds = %22
  %28 = fadd float %25, 0x401921FB60000000
  br label %_Z16btNormalizeAnglef.exit.i9

29:                                               ; preds = %22
  %30 = fcmp ogt float %25, 0x400921FB60000000
  br i1 %30, label %31, label %_Z16btNormalizeAnglef.exit.i9

31:                                               ; preds = %29
  %32 = fadd float %25, 0xC01921FB60000000
  br label %_Z16btNormalizeAnglef.exit.i9

_Z16btNormalizeAnglef.exit.i9:                    ; preds = %31, %29, %27
  %.0.i.i10 = phi float [ %28, %27 ], [ %32, %31 ], [ %25, %29 ]
  %.idx.i = mul nuw nsw i64 %indvars.iv.i8, 88
  %33 = getelementptr i8, ptr %21, i64 %.idx.i
  store float %.0.i.i10, ptr %33, align 4, !tbaa !17
  %indvars.iv.next.i11 = add nuw nsw i64 %indvars.iv.i8, 1
  %exitcond.not.i12 = icmp eq i64 %indvars.iv.next.i11, 3
  br i1 %exitcond.not.i12, label %_ZN30btGeneric6DofSpring2Constraint20setAngularUpperLimitERK9btVector3.exit, label %22, !llvm.loop !18

_ZN30btGeneric6DofSpring2Constraint20setAngularUpperLimitERK9btVector3.exit: ; preds = %_Z16btNormalizeAnglef.exit.i9
  call void @llvm.lifetime.end.p0(i64 16, ptr nonnull %7) #11
  %34 = getelementptr inbounds nuw i8, ptr %0, i64 704
  tail call void @llvm.memset.p0.i64(ptr noundef nonnull align 8 dereferenceable(32) %34, i8 0, i64 32, i1 false)
  ret void
}